target datalayout = "e-m:e-p270:32:32-p271:32:32-p272:64:64-i64:64-i128:128-f80:128-n8:16:32:64-S128"
target triple = "x86_64-pc-linux-gnu"

%struct.Node = type { i32 }
%struct.PlanState = type { i32, ptr, ptr, ptr, ptr, ptr, ptr, ptr, ptr, ptr, ptr, ptr, ptr, ptr, ptr, ptr, ptr, ptr, i8, ptr, ptr, ptr, ptr, ptr, i8, i8, i8, i8, i8, i8, i8, i8 }

@.str = private unnamed_addr constant [27 x i8] c"unrecognized node type: %d\00", align 1
@.str.1 = private unnamed_addr constant [15 x i8] c"execProcnode.c\00", align 1
@__func__.ExecEndNode = private unnamed_addr constant [12 x i8] c"ExecEndNode\00", align 1

; Function Attrs: nounwind uwtable
define dso_local void @ExecEndNode(ptr noundef %0) #0 {
  %2 = alloca ptr, align 8
  store ptr %0, ptr %2, align 8
  %3 = load ptr, ptr %2, align 8
  %4 = icmp eq ptr %3, null
  br i1 %4, label %5, label %6

5:                                                ; preds = %1
  br label %113

6:                                                ; preds = %1
  call void @check_stack_depth()
  %7 = load ptr, ptr %2, align 8
  %8 = getelementptr inbounds nuw %struct.PlanState, ptr %7, i32 0, i32 13
  %9 = load ptr, ptr %8, align 8
  %10 = icmp ne ptr %9, null
  br i1 %10, label %11, label %17

11:                                               ; preds = %6
  %12 = load ptr, ptr %2, align 8
  %13 = getelementptr inbounds nuw %struct.PlanState, ptr %12, i32 0, i32 13
  %14 = load ptr, ptr %13, align 8
  call void @bms_free(ptr noundef %14)
  %15 = load ptr, ptr %2, align 8
  %16 = getelementptr inbounds nuw %struct.PlanState, ptr %15, i32 0, i32 13
  store ptr null, ptr %16, align 8
  br label %17

17:                                               ; preds = %11, %6
  %18 = load ptr, ptr %2, align 8
  %19 = getelementptr inbounds nuw %struct.Node, ptr %18, i32 0, i32 0
  %20 = load i32, ptr %19, align 4
  switch i32 %20, label %100 [
    i32 393, label %21
    i32 394, label %23
    i32 395, label %25
    i32 396, label %27
    i32 397, label %29
    i32 398, label %31
    i32 399, label %33
    i32 400, label %35
    i32 402, label %37
    i32 403, label %39
    i32 431, label %41
    i32 432, label %43
    i32 404, label %45
    i32 405, label %47
    i32 406, label %49
    i32 407, label %51
    i32 408, label %53
    i32 409, label %55
    i32 410, label %57
    i32 411, label %59
    i32 413, label %61
    i32 414, label %63
    i32 417, label %65
    i32 418, label %67
    i32 420, label %69
    i32 421, label %71
    i32 422, label %73
    i32 423, label %75
    i32 425, label %77
    i32 426, label %79
    i32 424, label %81
    i32 427, label %83
    i32 428, label %85
    i32 429, label %87
    i32 430, label %89
    i32 433, label %91
    i32 434, label %93
    i32 435, label %95
    i32 436, label %97
    i32 412, label %99
    i32 415, label %99
    i32 416, label %99
  ]

21:                                               ; preds = %17
  %22 = load ptr, ptr %2, align 8
  call void @ExecEndResult(ptr noundef %22)
  br label %113

23:                                               ; preds = %17
  %24 = load ptr, ptr %2, align 8
  call void @ExecEndProjectSet(ptr noundef %24)
  br label %113

25:                                               ; preds = %17
  %26 = load ptr, ptr %2, align 8
  call void @ExecEndModifyTable(ptr noundef %26)
  br label %113

27:                                               ; preds = %17
  %28 = load ptr, ptr %2, align 8
  call void @ExecEndAppend(ptr noundef %28)
  br label %113

29:                                               ; preds = %17
  %30 = load ptr, ptr %2, align 8
  call void @ExecEndMergeAppend(ptr noundef %30)
  br label %113

31:                                               ; preds = %17
  %32 = load ptr, ptr %2, align 8
  call void @ExecEndRecursiveUnion(ptr noundef %32)
  br label %113

33:                                               ; preds = %17
  %34 = load ptr, ptr %2, align 8
  call void @ExecEndBitmapAnd(ptr noundef %34)
  br label %113

35:                                               ; preds = %17
  %36 = load ptr, ptr %2, align 8
  call void @ExecEndBitmapOr(ptr noundef %36)
  br label %113

37:                                               ; preds = %17
  %38 = load ptr, ptr %2, align 8
  call void @ExecEndSeqScan(ptr noundef %38)
  br label %113

39:                                               ; preds = %17
  %40 = load ptr, ptr %2, align 8
  call void @ExecEndSampleScan(ptr noundef %40)
  br label %113

41:                                               ; preds = %17
  %42 = load ptr, ptr %2, align 8
  call void @ExecEndGather(ptr noundef %42)
  br label %113

43:                                               ; preds = %17
  %44 = load ptr, ptr %2, align 8
  call void @ExecEndGatherMerge(ptr noundef %44)
  br label %113

45:                                               ; preds = %17
  %46 = load ptr, ptr %2, align 8
  call void @ExecEndIndexScan(ptr noundef %46)
  br label %113

47:                                               ; preds = %17
  %48 = load ptr, ptr %2, align 8
  call void @ExecEndIndexOnlyScan(ptr noundef %48)
  br label %113

49:                                               ; preds = %17
  %50 = load ptr, ptr %2, align 8
  call void @ExecEndBitmapIndexScan(ptr noundef %50)
  br label %113

51:                                               ; preds = %17
  %52 = load ptr, ptr %2, align 8
  call void @ExecEndBitmapHeapScan(ptr noundef %52)
  br label %113

53:                                               ; preds = %17
  %54 = load ptr, ptr %2, align 8
  call void @ExecEndTidScan(ptr noundef %54)
  br label %113

55:                                               ; preds = %17
  %56 = load ptr, ptr %2, align 8
  call void @ExecEndTidRangeScan(ptr noundef %56)
  br label %113

57:                                               ; preds = %17
  %58 = load ptr, ptr %2, align 8
  call void @ExecEndSubqueryScan(ptr noundef %58)
  br label %113

59:                                               ; preds = %17
  %60 = load ptr, ptr %2, align 8
  call void @ExecEndFunctionScan(ptr noundef %60)
  br label %113

61:                                               ; preds = %17
  %62 = load ptr, ptr %2, align 8
  call void @ExecEndTableFuncScan(ptr noundef %62)
  br label %113

63:                                               ; preds = %17
  %64 = load ptr, ptr %2, align 8
  call void @ExecEndCteScan(ptr noundef %64)
  br label %113

65:                                               ; preds = %17
  %66 = load ptr, ptr %2, align 8
  call void @ExecEndForeignScan(ptr noundef %66)
  br label %113

67:                                               ; preds = %17
  %68 = load ptr, ptr %2, align 8
  call void @ExecEndCustomScan(ptr noundef %68)
  br label %113

69:                                               ; preds = %17
  %70 = load ptr, ptr %2, align 8
  call void @ExecEndNestLoop(ptr noundef %70)
  br label %113

71:                                               ; preds = %17
  %72 = load ptr, ptr %2, align 8
  call void @ExecEndMergeJoin(ptr noundef %72)
  br label %113

73:                                               ; preds = %17
  %74 = load ptr, ptr %2, align 8
  call void @ExecEndHashJoin(ptr noundef %74)
  br label %113

75:                                               ; preds = %17
  %76 = load ptr, ptr %2, align 8
  call void @ExecEndMaterial(ptr noundef %76)
  br label %113

77:                                               ; preds = %17
  %78 = load ptr, ptr %2, align 8
  call void @ExecEndSort(ptr noundef %78)
  br label %113

79:                                               ; preds = %17
  %80 = load ptr, ptr %2, align 8
  call void @ExecEndIncrementalSort(ptr noundef %80)
  br label %113

81:                                               ; preds = %17
  %82 = load ptr, ptr %2, align 8
  call void @ExecEndMemoize(ptr noundef %82)
  br label %113

83:                                               ; preds = %17
  %84 = load ptr, ptr %2, align 8
  call void @ExecEndGroup(ptr noundef %84)
  br label %113

85:                                               ; preds = %17
  %86 = load ptr, ptr %2, align 8
  call void @ExecEndAgg(ptr noundef %86)
  br label %113

87:                                               ; preds = %17
  %88 = load ptr, ptr %2, align 8
  call void @ExecEndWindowAgg(ptr noundef %88)
  br label %113

89:                                               ; preds = %17
  %90 = load ptr, ptr %2, align 8
  call void @ExecEndUnique(ptr noundef %90)
  br label %113

91:                                               ; preds = %17
  %92 = load ptr, ptr %2, align 8
  call void @ExecEndHash(ptr noundef %92)
  br label %113

93:                                               ; preds = %17
  %94 = load ptr, ptr %2, align 8
  call void @ExecEndSetOp(ptr noundef %94)
  br label %113

95:                                               ; preds = %17
  %96 = load ptr, ptr %2, align 8
  call void @ExecEndLockRows(ptr noundef %96)
  br label %113

97:                                               ; preds = %17
  %98 = load ptr, ptr %2, align 8
  call void @ExecEndLimit(ptr noundef %98)
  br label %113

99:                                               ; preds = %17, %17, %17
  br label %113

100:                                              ; preds = %17
  br label %101

101:                                              ; preds = %100
  br i1 true, label %102, label %104

102:                                              ; preds = %101
  %103 = call zeroext i1 @errstart_cold(i32 noundef 21, ptr noundef null) #7
  br i1 %103, label %106, label %111

104:                                              ; preds = %101
  %105 = call zeroext i1 @errstart(i32 noundef 21, ptr noundef null)
  br i1 %105, label %106, label %111

106:                                              ; preds = %104, %102
  %107 = load ptr, ptr %2, align 8
  %108 = getelementptr inbounds nuw %struct.Node, ptr %107, i32 0, i32 0
  %109 = load i32, ptr %108, align 4
  %110 = call i32 (ptr, ...) @errmsg_internal(ptr noundef @.str, i32 noundef %109)
  call void @errfinish(ptr noundef @.str.1, i32 noundef 760, ptr noundef @__func__.ExecEndNode)
  br label %111

111:                                              ; preds = %106, %104, %102
  unreachable

112:                                              ; No predecessors!
  br label %113

113:                                              ; preds = %5, %112, %99, %97, %95, %93, %91, %89, %87, %85, %83, %81, %79, %77, %75, %73, %71, %69, %67, %65, %63, %61, %59, %57, %55, %53, %51, %49, %47, %45, %43, %41, %39, %37, %35, %33, %31, %29, %27, %25, %23, %21
  ret void
}