; Function Attrs: nounwind uwtable
define dso_local void @ExecEndNode(ptr noundef %0) local_unnamed_addr #0 {
  %2 = icmp eq ptr %0, null
  br i1 %2, label %52, label %3

3:                                                ; preds = %1
  tail call void @check_stack_depth() #6
  %4 = getelementptr inbounds nuw i8, ptr %0, i64 104
  %5 = load ptr, ptr %4, align 8
  %.not = icmp eq ptr %5, null
  br i1 %.not, label %7, label %6

6:                                                ; preds = %3
  tail call void @bms_free(ptr noundef nonnull %5) #6
  store ptr null, ptr %4, align 8
  br label %7

7:                                                ; preds = %6, %3
  %8 = load i32, ptr %0, align 4
  switch i32 %8, label %48 [
    i32 393, label %9
    i32 394, label %10
    i32 395, label %11
    i32 396, label %12
    i32 397, label %13
    i32 398, label %14
    i32 399, label %15
    i32 400, label %16
    i32 402, label %17
    i32 403, label %18
    i32 431, label %19
    i32 432, label %20
    i32 404, label %21
    i32 405, label %22
    i32 406, label %23
    i32 407, label %24
    i32 408, label %25
    i32 409, label %26
    i32 410, label %27
    i32 411, label %28
    i32 413, label %29
    i32 414, label %30
    i32 417, label %31
    i32 418, label %32
    i32 420, label %33
    i32 421, label %34
    i32 422, label %35
    i32 423, label %36
    i32 425, label %37
    i32 426, label %38
    i32 424, label %39
    i32 427, label %40
    i32 428, label %41
    i32 429, label %42
    i32 430, label %43
    i32 433, label %44
    i32 434, label %45
    i32 435, label %46
    i32 436, label %47
    i32 412, label %52
    i32 415, label %52
    i32 416, label %52
  ]

9:                                                ; preds = %7
  tail call void @ExecEndResult(ptr noundef nonnull %0) #6
  br label %52

10:                                               ; preds = %7
  tail call void @ExecEndProjectSet(ptr noundef nonnull %0) #6
  br label %52

11:                                               ; preds = %7
  tail call void @ExecEndModifyTable(ptr noundef nonnull %0) #6
  br label %52

12:                                               ; preds = %7
  tail call void @ExecEndAppend(ptr noundef nonnull %0) #6
  br label %52

13:                                               ; preds = %7
  tail call void @ExecEndMergeAppend(ptr noundef nonnull %0) #6
  br label %52

14:                                               ; preds = %7
  tail call void @ExecEndRecursiveUnion(ptr noundef nonnull %0) #6
  br label %52

15:                                               ; preds = %7
  tail call void @ExecEndBitmapAnd(ptr noundef nonnull %0) #6
  br label %52

16:                                               ; preds = %7
  tail call void @ExecEndBitmapOr(ptr noundef nonnull %0) #6
  br label %52

17:                                               ; preds = %7
  tail call void @ExecEndSeqScan(ptr noundef nonnull %0) #6
  br label %52

18:                                               ; preds = %7
  tail call void @ExecEndSampleScan(ptr noundef nonnull %0) #6
  br label %52

19:                                               ; preds = %7
  tail call void @ExecEndGather(ptr noundef nonnull %0) #6
  br label %52

20:                                               ; preds = %7
  tail call void @ExecEndGatherMerge(ptr noundef nonnull %0) #6
  br label %52

21:                                               ; preds = %7
  tail call void @ExecEndIndexScan(ptr noundef nonnull %0) #6
  br label %52

22:                                               ; preds = %7
  tail call void @ExecEndIndexOnlyScan(ptr noundef nonnull %0) #6
  br label %52

23:                                               ; preds = %7
  tail call void @ExecEndBitmapIndexScan(ptr noundef nonnull %0) #6
  br label %52

24:                                               ; preds = %7
  tail call void @ExecEndBitmapHeapScan(ptr noundef nonnull %0) #6
  br label %52

25:                                               ; preds = %7
  tail call void @ExecEndTidScan(ptr noundef nonnull %0) #6
  br label %52

26:                                               ; preds = %7
  tail call void @ExecEndTidRangeScan(ptr noundef nonnull %0) #6
  br label %52

27:                                               ; preds = %7
  tail call void @ExecEndSubqueryScan(ptr noundef nonnull %0) #6
  br label %52

28:                                               ; preds = %7
  tail call void @ExecEndFunctionScan(ptr noundef nonnull %0) #6
  br label %52

29:                                               ; preds = %7
  tail call void @ExecEndTableFuncScan(ptr noundef nonnull %0) #6
  br label %52

30:                                               ; preds = %7
  tail call void @ExecEndCteScan(ptr noundef nonnull %0) #6
  br label %52

31:                                               ; preds = %7
  tail call void @ExecEndForeignScan(ptr noundef nonnull %0) #6
  br label %52

32:                                               ; preds = %7
  tail call void @ExecEndCustomScan(ptr noundef nonnull %0) #6
  br label %52

33:                                               ; preds = %7
  tail call void @ExecEndNestLoop(ptr noundef nonnull %0) #6
  br label %52

34:                                               ; preds = %7
  tail call void @ExecEndMergeJoin(ptr noundef nonnull %0) #6
  br label %52

35:                                               ; preds = %7
  tail call void @ExecEndHashJoin(ptr noundef nonnull %0) #6
  br label %52

36:                                               ; preds = %7
  tail call void @ExecEndMaterial(ptr noundef nonnull %0) #6
  br label %52

37:                                               ; preds = %7
  tail call void @ExecEndSort(ptr noundef nonnull %0) #6
  br label %52

38:                                               ; preds = %7
  tail call void @ExecEndIncrementalSort(ptr noundef nonnull %0) #6
  br label %52

39:                                               ; preds = %7
  tail call void @ExecEndMemoize(ptr noundef nonnull %0) #6
  br label %52

40:                                               ; preds = %7
  tail call void @ExecEndGroup(ptr noundef nonnull %0) #6
  br label %52

41:                                               ; preds = %7
  tail call void @ExecEndAgg(ptr noundef nonnull %0) #6
  br label %52

42:                                               ; preds = %7
  tail call void @ExecEndWindowAgg(ptr noundef nonnull %0) #6
  br label %52

43:                                               ; preds = %7
  tail call void @ExecEndUnique(ptr noundef nonnull %0) #6
  br label %52

44:                                               ; preds = %7
  tail call void @ExecEndHash(ptr noundef nonnull %0) #6
  br label %52

45:                                               ; preds = %7
  tail call void @ExecEndSetOp(ptr noundef nonnull %0) #6
  br label %52

46:                                               ; preds = %7
  tail call void @ExecEndLockRows(ptr noundef nonnull %0) #6
  br label %52

47:                                               ; preds = %7
  tail call void @ExecEndLimit(ptr noundef nonnull %0) #6
  br label %52

48:                                               ; preds = %7
  %49 = tail call zeroext i1 @errstart_cold(i32 noundef 21, ptr noundef null) #7
  tail call void @llvm.assume(i1 %49)
  %50 = load i32, ptr %0, align 4
  %51 = tail call i32 (ptr, ...) @errmsg_internal(ptr noundef nonnull @.str, i32 noundef %50) #6
  tail call void @errfinish(ptr noundef nonnull @.str.1, i32 noundef 760, ptr noundef nonnull @__func__.ExecEndNode) #6
  unreachable

52:                                               ; preds = %7, %7, %7, %1, %47, %46, %45, %44, %43, %42, %41, %40, %39, %38, %37, %36, %35, %34, %33, %32, %31, %30, %29, %28, %27, %26, %25, %24, %23, %22, %21, %20, %19, %18, %17, %16, %15, %14, %13, %12, %11, %10, %9
  ret void
}